; Function Attrs: mustprogress uwtable
define noundef nonnull align 8 dereferenceable(104) ptr @_ZN32pxrInternal_v0_24__pxrReserved__17SdfPathExpression7NothingEv() local_unnamed_addr #0 align 2 personality ptr @__gxx_personality_v0 {
  %1 = load atomic i8, ptr @_ZGVZN32pxrInternal_v0_24__pxrReserved__17SdfPathExpression7NothingEvE10theNothing acquire, align 8
  %2 = icmp eq i8 %1, 0
  br i1 %2, label %3, label %9, !prof !4

3:                                                ; preds = %0
  %4 = tail call i32 @__cxa_guard_acquire(ptr nonnull @_ZGVZN32pxrInternal_v0_24__pxrReserved__17SdfPathExpression7NothingEvE10theNothing) #24
  %.not = icmp eq i32 %4, 0
  br i1 %.not, label %9, label %5

5:                                                ; preds = %3
  %6 = invoke noalias noundef nonnull dereferenceable(104) ptr @_Znwm(i64 noundef 104) #25
          to label %7 unwind label %11

7:                                                ; preds = %5
  %8 = getelementptr inbounds nuw i8, ptr %6, i64 72
  tail call void @llvm.memset.p0.i64(ptr noundef nonnull align 8 dereferenceable(104) %6, i8 0, i64 104, i1 false)
  tail call void @_ZNSt7__cxx1112basic_stringIcSt11char_traitsIcESaIcEEC1Ev(ptr noundef nonnull align 8 dereferenceable(32) %8) #24
  store ptr %6, ptr @_ZZN32pxrInternal_v0_24__pxrReserved__17SdfPathExpression7NothingEvE10theNothing, align 8
  tail call void @__cxa_guard_release(ptr nonnull @_ZGVZN32pxrInternal_v0_24__pxrReserved__17SdfPathExpression7NothingEvE10theNothing) #24
  br label %9

9:                                                ; preds = %7, %3, %0
  %10 = load ptr, ptr @_ZZN32pxrInternal_v0_24__pxrReserved__17SdfPathExpression7NothingEvE10theNothing, align 8
  ret ptr %10

11:                                               ; preds = %5
  %12 = landingpad { ptr, i32 }
          cleanup
  tail call void @__cxa_guard_abort(ptr nonnull @_ZGVZN32pxrInternal_v0_24__pxrReserved__17SdfPathExpression7NothingEvE10theNothing) #24
  resume { ptr, i32 } %12
}